target datalayout = "e-m:e-p270:32:32-p271:32:32-p272:64:64-i64:64-i128:128-f80:128-n8:16:32:64-S128"
target triple = "x86_64-pc-linux-gnu"

%"class.cv::RNG_MT19937" = type { [624 x i32], i32 }

@_ZZN2cv11RNG_MT199374nextEvE5mag01 = internal global [2 x i32] [i32 0, i32 -1727483681], align 4

; Function Attrs: mustprogress nounwind uwtable
define noundef i32 @_ZN2cv11RNG_MT199374nextEv(ptr noundef nonnull align 4 dereferenceable(2500) %0) #4 align 2 {
  %2 = alloca ptr, align 8
  %3 = alloca i32, align 4
  %4 = alloca i32, align 4
  %5 = alloca i32, align 4
  %6 = alloca i32, align 4
  %7 = alloca i32, align 4
  %8 = alloca i32, align 4
  %9 = alloca i32, align 4
  store ptr %0, ptr %2, align 8
  %10 = load ptr, ptr %2, align 8
  store i32 -2147483648, ptr %3, align 4
  store i32 2147483647, ptr %4, align 4
  %11 = getelementptr inbounds %"class.cv::RNG_MT19937", ptr %10, i32 0, i32 1
  %12 = load i32, ptr %11, align 4
  %13 = icmp sge i32 %12, 624
  br i1 %13, label %14, label %121

14:                                               ; preds = %1
  store i32 0, ptr %5, align 4
  br label %15

15:                                               ; preds = %52, %14
  %16 = load i32, ptr %5, align 4
  %17 = icmp slt i32 %16, 227
  br i1 %17, label %18, label %55

18:                                               ; preds = %15
  %19 = getelementptr inbounds %"class.cv::RNG_MT19937", ptr %10, i32 0, i32 0
  %20 = load i32, ptr %5, align 4
  %21 = sext i32 %20 to i64
  %22 = getelementptr inbounds [624 x i32], ptr %19, i64 0, i64 %21
  %23 = load i32, ptr %22, align 4
  %24 = and i32 %23, -2147483648
  %25 = getelementptr inbounds %"class.cv::RNG_MT19937", ptr %10, i32 0, i32 0
  %26 = load i32, ptr %5, align 4
  %27 = add nsw i32 %26, 1
  %28 = sext i32 %27 to i64
  %29 = getelementptr inbounds [624 x i32], ptr %25, i64 0, i64 %28
  %30 = load i32, ptr %29, align 4
  %31 = and i32 %30, 2147483647
  %32 = or i32 %24, %31
  store i32 %32, ptr %6, align 4
  %33 = getelementptr inbounds %"class.cv::RNG_MT19937", ptr %10, i32 0, i32 0
  %34 = load i32, ptr %5, align 4
  %35 = add nsw i32 %34, 397
  %36 = sext i32 %35 to i64
  %37 = getelementptr inbounds [624 x i32], ptr %33, i64 0, i64 %36
  %38 = load i32, ptr %37, align 4
  %39 = load i32, ptr %6, align 4
  %40 = lshr i32 %39, 1
  %41 = xor i32 %38, %40
  %42 = load i32, ptr %6, align 4
  %43 = and i32 %42, 1
  %44 = zext i32 %43 to i64
  %45 = getelementptr inbounds [2 x i32], ptr @_ZZN2cv11RNG_MT199374nextEvE5mag01, i64 0, i64 %44
  %46 = load i32, ptr %45, align 4
  %47 = xor i32 %41, %46
  %48 = getelementptr inbounds %"class.cv::RNG_MT19937", ptr %10, i32 0, i32 0
  %49 = load i32, ptr %5, align 4
  %50 = sext i32 %49 to i64
  %51 = getelementptr inbounds [624 x i32], ptr %48, i64 0, i64 %50
  store i32 %47, ptr %51, align 4
  br label %52

52:                                               ; preds = %18
  %53 = load i32, ptr %5, align 4
  %54 = add nsw i32 %53, 1
  store i32 %54, ptr %5, align 4
  br label %15, !llvm.loop !59

55:                                               ; preds = %15
  br label %56

56:                                               ; preds = %93, %55
  %57 = load i32, ptr %5, align 4
  %58 = icmp slt i32 %57, 623
  br i1 %58, label %59, label %96

59:                                               ; preds = %56
  %60 = getelementptr inbounds %"class.cv::RNG_MT19937", ptr %10, i32 0, i32 0
  %61 = load i32, ptr %5, align 4
  %62 = sext i32 %61 to i64
  %63 = getelementptr inbounds [624 x i32], ptr %60, i64 0, i64 %62
  %64 = load i32, ptr %63, align 4
  %65 = and i32 %64, -2147483648
  %66 = getelementptr inbounds %"class.cv::RNG_MT19937", ptr %10, i32 0, i32 0
  %67 = load i32, ptr %5, align 4
  %68 = add nsw i32 %67, 1
  %69 = sext i32 %68 to i64
  %70 = getelementptr inbounds [624 x i32], ptr %66, i64 0, i64 %69
  %71 = load i32, ptr %70, align 4
  %72 = and i32 %71, 2147483647
  %73 = or i32 %65, %72
  store i32 %73, ptr %7, align 4
  %74 = getelementptr inbounds %"class.cv::RNG_MT19937", ptr %10, i32 0, i32 0
  %75 = load i32, ptr %5, align 4
  %76 = add nsw i32 %75, -227
  %77 = sext i32 %76 to i64
  %78 = getelementptr inbounds [624 x i32], ptr %74, i64 0, i64 %77
  %79 = load i32, ptr %78, align 4
  %80 = load i32, ptr %7, align 4
  %81 = lshr i32 %80, 1
  %82 = xor i32 %79, %81
  %83 = load i32, ptr %7, align 4
  %84 = and i32 %83, 1
  %85 = zext i32 %84 to i64
  %86 = getelementptr inbounds [2 x i32], ptr @_ZZN2cv11RNG_MT199374nextEvE5mag01, i64 0, i64 %85
  %87 = load i32, ptr %86, align 4
  %88 = xor i32 %82, %87
  %89 = getelementptr inbounds %"class.cv::RNG_MT19937", ptr %10, i32 0, i32 0
  %90 = load i32, ptr %5, align 4
  %91 = sext i32 %90 to i64
  %92 = getelementptr inbounds [624 x i32], ptr %89, i64 0, i64 %91
  store i32 %88, ptr %92, align 4
  br label %93

93:                                               ; preds = %59
  %94 = load i32, ptr %5, align 4
  %95 = add nsw i32 %94, 1
  store i32 %95, ptr %5, align 4
  br label %56, !llvm.loop !60

96:                                               ; preds = %56
  %97 = getelementptr inbounds %"class.cv::RNG_MT19937", ptr %10, i32 0, i32 0
  %98 = getelementptr inbounds [624 x i32], ptr %97, i64 0, i64 623
  %99 = load i32, ptr %98, align 4
  %100 = and i32 %99, -2147483648
  %101 = getelementptr inbounds %"class.cv::RNG_MT19937", ptr %10, i32 0, i32 0
  %102 = getelementptr inbounds [624 x i32], ptr %101, i64 0, i64 0
  %103 = load i32, ptr %102, align 4
  %104 = and i32 %103, 2147483647
  %105 = or i32 %100, %104
  store i32 %105, ptr %8, align 4
  %106 = getelementptr inbounds %"class.cv::RNG_MT19937", ptr %10, i32 0, i32 0
  %107 = getelementptr inbounds [624 x i32], ptr %106, i64 0, i64 396
  %108 = load i32, ptr %107, align 4
  %109 = load i32, ptr %8, align 4
  %110 = lshr i32 %109, 1
  %111 = xor i32 %108, %110
  %112 = load i32, ptr %8, align 4
  %113 = and i32 %112, 1
  %114 = zext i32 %113 to i64
  %115 = getelementptr inbounds [2 x i32], ptr @_ZZN2cv11RNG_MT199374nextEvE5mag01, i64 0, i64 %114
  %116 = load i32, ptr %115, align 4
  %117 = xor i32 %111, %116
  %118 = getelementptr inbounds %"class.cv::RNG_MT19937", ptr %10, i32 0, i32 0
  %119 = getelementptr inbounds [624 x i32], ptr %118, i64 0, i64 623
  store i32 %117, ptr %119, align 4
  %120 = getelementptr inbounds %"class.cv::RNG_MT19937", ptr %10, i32 0, i32 1
  store i32 0, ptr %120, align 4
  br label %121

121:                                              ; preds = %96, %1
  %122 = getelementptr inbounds %"class.cv::RNG_MT19937", ptr %10, i32 0, i32 0
  %123 = getelementptr inbounds %"class.cv::RNG_MT19937", ptr %10, i32 0, i32 1
  %124 = load i32, ptr %123, align 4
  %125 = add nsw i32 %124, 1
  store i32 %125, ptr %123, align 4
  %126 = sext i32 %124 to i64
  %127 = getelementptr inbounds [624 x i32], ptr %122, i64 0, i64 %126
  %128 = load i32, ptr %127, align 4
  store i32 %128, ptr %9, align 4
  %129 = load i32, ptr %9, align 4
  %130 = lshr i32 %129, 11
  %131 = load i32, ptr %9, align 4
  %132 = xor i32 %131, %130
  store i32 %132, ptr %9, align 4
  %133 = load i32, ptr %9, align 4
  %134 = shl i32 %133, 7
  %135 = and i32 %134, -1658038656
  %136 = load i32, ptr %9, align 4
  %137 = xor i32 %136, %135
  store i32 %137, ptr %9, align 4
  %138 = load i32, ptr %9, align 4
  %139 = shl i32 %138, 15
  %140 = and i32 %139, -272236544
  %141 = load i32, ptr %9, align 4
  %142 = xor i32 %141, %140
  store i32 %142, ptr %9, align 4
  %143 = load i32, ptr %9, align 4
  %144 = lshr i32 %143, 18
  %145 = load i32, ptr %9, align 4
  %146 = xor i32 %145, %144
  store i32 %146, ptr %9, align 4
  %147 = load i32, ptr %9, align 4
  ret i32 %147
}