; Function Attrs: mustprogress nofree norecurse nosync nounwind memory(argmem: readwrite) uwtable
define noundef i32 @_ZN2cv11RNG_MT199374nextEv(ptr nocapture noundef nonnull align 4 dereferenceable(2500) %0) local_unnamed_addr #7 align 2 {
  %2 = getelementptr inbounds i8, ptr %0, i64 2496
  %3 = load i32, ptr %2, align 4
  %4 = icmp sgt i32 %3, 623
  br i1 %4, label %.preheader27.preheader, label %54

.preheader27.preheader:                           ; preds = %1
  %.pre = load i32, ptr %0, align 4
  br label %.preheader27

.lr.ph.preheader:                                 ; preds = %.preheader27
  %.phi.trans.insert = getelementptr inbounds i8, ptr %0, i64 908
  %.pre35 = load i32, ptr %.phi.trans.insert, align 4
  br label %.lr.ph

.preheader27:                                     ; preds = %.preheader27.preheader, %.preheader27
  %5 = phi i32 [ %.pre, %.preheader27.preheader ], [ %9, %.preheader27 ]
  %indvars.iv = phi i64 [ 0, %.preheader27.preheader ], [ %indvars.iv.next, %.preheader27 ]
  %6 = getelementptr inbounds [624 x i32], ptr %0, i64 0, i64 %indvars.iv
  %7 = and i32 %5, -2147483648
  %indvars.iv.next = add nuw nsw i64 %indvars.iv, 1
  %8 = getelementptr inbounds [624 x i32], ptr %0, i64 0, i64 %indvars.iv.next
  %9 = load i32, ptr %8, align 4
  %10 = and i32 %9, 2147483646
  %11 = or disjoint i32 %10, %7
  %12 = add nuw nsw i64 %indvars.iv, 397
  %13 = getelementptr inbounds [624 x i32], ptr %0, i64 0, i64 %12
  %14 = load i32, ptr %13, align 4
  %15 = lshr exact i32 %11, 1
  %16 = and i32 %9, 1
  %17 = zext nneg i32 %16 to i64
  %18 = getelementptr inbounds [2 x i32], ptr @_ZZN2cv11RNG_MT199374nextEvE5mag01, i64 0, i64 %17
  %19 = load i32, ptr %18, align 4
  %20 = xor i32 %19, %14
  %21 = xor i32 %20, %15
  store i32 %21, ptr %6, align 4
  %exitcond.not = icmp eq i64 %indvars.iv.next, 227
  br i1 %exitcond.not, label %.lr.ph.preheader, label %.preheader27, !llvm.loop !77

.lr.ph:                                           ; preds = %.lr.ph.preheader, %.lr.ph
  %22 = phi i32 [ %.pre35, %.lr.ph.preheader ], [ %26, %.lr.ph ]
  %indvars.iv31 = phi i64 [ 227, %.lr.ph.preheader ], [ %indvars.iv.next32, %.lr.ph ]
  %23 = getelementptr inbounds [624 x i32], ptr %0, i64 0, i64 %indvars.iv31
  %24 = and i32 %22, -2147483648
  %indvars.iv.next32 = add nuw nsw i64 %indvars.iv31, 1
  %25 = getelementptr inbounds [624 x i32], ptr %0, i64 0, i64 %indvars.iv.next32
  %26 = load i32, ptr %25, align 4
  %27 = and i32 %26, 2147483646
  %28 = or disjoint i32 %27, %24
  %29 = add nsw i64 %indvars.iv31, -227
  %30 = getelementptr inbounds [624 x i32], ptr %0, i64 0, i64 %29
  %31 = load i32, ptr %30, align 4
  %32 = lshr exact i32 %28, 1
  %33 = and i32 %26, 1
  %34 = zext nneg i32 %33 to i64
  %35 = getelementptr inbounds [2 x i32], ptr @_ZZN2cv11RNG_MT199374nextEvE5mag01, i64 0, i64 %34
  %36 = load i32, ptr %35, align 4
  %37 = xor i32 %36, %31
  %38 = xor i32 %37, %32
  store i32 %38, ptr %23, align 4
  %exitcond34.not = icmp eq i64 %indvars.iv.next32, 623
  br i1 %exitcond34.not, label %._crit_edge, label %.lr.ph, !llvm.loop !78

._crit_edge:                                      ; preds = %.lr.ph
  %39 = getelementptr inbounds i8, ptr %0, i64 2492
  %40 = load i32, ptr %39, align 4
  %41 = and i32 %40, -2147483648
  %42 = load i32, ptr %0, align 4
  %43 = and i32 %42, 2147483646
  %44 = or disjoint i32 %43, %41
  %45 = getelementptr inbounds i8, ptr %0, i64 1584
  %46 = load i32, ptr %45, align 4
  %47 = lshr exact i32 %44, 1
  %48 = and i32 %42, 1
  %49 = zext nneg i32 %48 to i64
  %50 = getelementptr inbounds [2 x i32], ptr @_ZZN2cv11RNG_MT199374nextEvE5mag01, i64 0, i64 %49
  %51 = load i32, ptr %50, align 4
  %52 = xor i32 %51, %46
  %53 = xor i32 %52, %47
  store i32 %53, ptr %39, align 4
  br label %54

54:                                               ; preds = %._crit_edge, %1
  %55 = phi i32 [ 0, %._crit_edge ], [ %3, %1 ]
  %56 = add nsw i32 %55, 1
  store i32 %56, ptr %2, align 4
  %57 = sext i32 %55 to i64
  %58 = getelementptr inbounds [624 x i32], ptr %0, i64 0, i64 %57
  %59 = load i32, ptr %58, align 4
  %60 = lshr i32 %59, 11
  %61 = xor i32 %60, %59
  %62 = shl i32 %61, 7
  %63 = and i32 %62, -1658038656
  %64 = xor i32 %63, %61
  %65 = shl i32 %64, 15
  %66 = and i32 %65, -272236544
  %67 = xor i32 %66, %64
  %68 = lshr i32 %67, 18
  %69 = xor i32 %68, %67
  ret i32 %69
}